; Function Attrs: mustprogress nounwind uwtable
define hidden i64 @_ZN12LIRGenerator13load_constantEP8Constant(ptr noundef nonnull align 8 dereferenceable(232) %0, ptr noundef %1) local_unnamed_addr #3 align 2 {
  %3 = getelementptr inbounds i8, ptr %0, i64 200
  %4 = load i32, ptr %3, align 8
  %5 = getelementptr inbounds i8, ptr %0, i64 204
  %6 = load i32, ptr %5, align 4
  %7 = icmp eq i32 %4, %6
  br i1 %7, label %8, label %_ZN26GrowableArrayWithAllocatorIP11Instruction13GrowableArrayIS1_EE6appendERKS1_.exit

8:                                                ; preds = %2
  %9 = add nsw i32 %4, 1
  %10 = icmp sgt i32 %4, -1
  %11 = xor i32 %4, -2147483648
  %12 = and i32 %11, %9
  %13 = icmp eq i32 %12, 0
  %14 = and i1 %10, %13
  %15 = tail call range(i32 0, 33) i32 @llvm.ctlz.i32(i32 %9, i1 true)
  %16 = sub nuw nsw i32 32, %15
  %17 = shl nuw i32 1, %16
  %.0.i.i.i.i = select i1 %14, i32 %9, i32 %17
  tail call void @_ZN26GrowableArrayWithAllocatorIP11Instruction13GrowableArrayIS1_EE9expand_toEi(ptr noundef nonnull align 8 dereferenceable(16) %3, i32 noundef %.0.i.i.i.i)
  %.pre.i = load i32, ptr %3, align 8
  br label %_ZN26GrowableArrayWithAllocatorIP11Instruction13GrowableArrayIS1_EE6appendERKS1_.exit

_ZN26GrowableArrayWithAllocatorIP11Instruction13GrowableArrayIS1_EE6appendERKS1_.exit: ; preds = %2, %8
  %18 = phi i32 [ %.pre.i, %8 ], [ %4, %2 ]
  %19 = add nsw i32 %18, 1
  store i32 %19, ptr %3, align 8
  %20 = getelementptr inbounds i8, ptr %0, i64 208
  %21 = load ptr, ptr %20, align 8
  %22 = sext i32 %18 to i64
  %23 = getelementptr inbounds ptr, ptr %21, i64 %22
  store ptr %1, ptr %23, align 8
  %24 = getelementptr inbounds i8, ptr %1, i64 24
  %25 = load ptr, ptr %24, align 8
  %26 = tail call i64 @_ZN11LIR_OprFact10value_typeEP9ValueType(ptr noundef %25) #17
  %27 = inttoptr i64 %26 to ptr
  %28 = load ptr, ptr %27, align 8
  %29 = load ptr, ptr %28, align 8
  %30 = tail call noundef ptr %29(ptr noundef nonnull align 8 dereferenceable(8) %27) #17
  %31 = tail call i64 @_ZN12LIRGenerator13load_constantEP9LIR_Const(ptr noundef nonnull align 8 dereferenceable(232) %0, ptr noundef %30)
  ret i64 %31
}